; Function Attrs: mustprogress uwtable
define void @_ZNK5arrow7compute10SwissTable12early_filterEiPKjPhS4_(ptr noundef nonnull align 8 dereferenceable(64) %this, i32 noundef %num_keys, ptr noundef %hashes, ptr noundef %out_match_bitvector, ptr noundef %out_local_slots) local_unnamed_addr #0 align 2 {
entry:
  %hardware_flags_ = getelementptr inbounds i8, ptr %this, i64 48
  %0 = load i64, ptr %hardware_flags_, align 8
  %and = and i64 %0, 32
  %tobool.not = icmp eq i64 %and, 0
  br i1 %tobool.not, label %if.end10, label %land.lhs.true

land.lhs.true:                                    ; preds = %entry
  %call = tail call noundef ptr @_ZN5arrow8internal7CpuInfo11GetInstanceEv()
  %call.i = tail call noundef i32 @_ZNK5arrow8internal7CpuInfo6vendorEv(ptr noundef nonnull align 8 dereferenceable(8) %call)
  %cmp.i = icmp eq i32 %call.i, 1
  br i1 %cmp.i, label %_ZNK5arrow8internal7CpuInfo16HasEfficientBmi2Ev.exit, label %if.end10

_ZNK5arrow8internal7CpuInfo16HasEfficientBmi2Ev.exit: ; preds = %land.lhs.true
  %call2.i = tail call noundef zeroext i1 @_ZNK5arrow8internal7CpuInfo11IsSupportedEl(ptr noundef nonnull align 8 dereferenceable(8) %call, i64 noundef 4096)
  br i1 %call2.i, label %if.then, label %if.end10

if.then:                                          ; preds = %_ZNK5arrow8internal7CpuInfo16HasEfficientBmi2Ev.exit
  %log_blocks_ = getelementptr inbounds i8, ptr %this, i64 4
  %1 = load i32, ptr %log_blocks_, align 4
  %cmp = icmp slt i32 %1, 5
  br i1 %cmp, label %if.then3, label %if.end

if.then3:                                         ; preds = %if.then
  %call4 = tail call noundef i32 @_ZNK5arrow7compute10SwissTable25early_filter_imp_avx2_x32EiPKjPhS4_(ptr noundef nonnull align 8 dereferenceable(64) %this, i32 noundef %num_keys, ptr noundef %hashes, ptr noundef %out_match_bitvector, ptr noundef %out_local_slots)
  br label %if.end

if.end:                                           ; preds = %if.then3, %if.then
  %num_processed.0 = phi i32 [ %call4, %if.then3 ], [ 0, %if.then ]
  %sub = sub nsw i32 %num_keys, %num_processed.0
  %idx.ext = sext i32 %num_processed.0 to i64
  %add.ptr = getelementptr inbounds i32, ptr %hashes, i64 %idx.ext
  %div = sdiv i32 %num_processed.0, 8
  %idx.ext5 = sext i32 %div to i64
  %add.ptr6 = getelementptr inbounds i8, ptr %out_match_bitvector, i64 %idx.ext5
  %add.ptr8 = getelementptr inbounds i8, ptr %out_local_slots, i64 %idx.ext
  %call9 = tail call noundef i32 @_ZNK5arrow7compute10SwissTable24early_filter_imp_avx2_x8EiPKjPhS4_(ptr noundef nonnull align 8 dereferenceable(64) %this, i32 noundef %sub, ptr noundef %add.ptr, ptr noundef %add.ptr6, ptr noundef %add.ptr8)
  %add = add nsw i32 %call9, %num_processed.0
  br label %if.end10

if.end10:                                         ; preds = %land.lhs.true, %if.end, %_ZNK5arrow8internal7CpuInfo16HasEfficientBmi2Ev.exit, %entry
  %num_processed.1 = phi i32 [ %add, %if.end ], [ 0, %_ZNK5arrow8internal7CpuInfo16HasEfficientBmi2Ev.exit ], [ 0, %entry ], [ 0, %land.lhs.true ]
  %sub11 = sub nsw i32 %num_keys, %num_processed.1
  %idx.ext12 = sext i32 %num_processed.1 to i64
  %add.ptr13 = getelementptr inbounds i32, ptr %hashes, i64 %idx.ext12
  %div14 = sdiv i32 %num_processed.1, 8
  %idx.ext15 = sext i32 %div14 to i64
  %add.ptr16 = getelementptr inbounds i8, ptr %out_match_bitvector, i64 %idx.ext15
  %add.ptr18 = getelementptr inbounds i8, ptr %out_local_slots, i64 %idx.ext12
  %add.i = add nsw i32 %sub11, 7
  %div.i = sdiv i32 %add.i, 8
  %conv.i = sext i32 %div.i to i64
  tail call void @llvm.memset.p0.i64(ptr align 1 %add.ptr16, i8 0, i64 %conv.i, i1 false)
  %log_blocks_.i = getelementptr inbounds i8, ptr %this, i64 4
  %cmp14.i = icmp sgt i32 %sub11, 0
  br i1 %cmp14.i, label %for.body.lr.ph.i, label %_ZNK5arrow7compute10SwissTable16early_filter_impEiPKjPhS4_.exit

for.body.lr.ph.i:                                 ; preds = %if.end10
  %2 = load i32, ptr %log_blocks_.i, align 4
  %cmp1.i.i = icmp ult i32 %2, 14
  %cmp4.i.i = icmp slt i32 %2, 30
  %3 = select i1 %cmp4.i.i, i64 40, i64 72
  %4 = select i1 %cmp1.i.i, i64 24, i64 %3
  %cmp.i.i = icmp slt i32 %2, 6
  %add4.i = select i1 %cmp.i.i, i64 16, i64 %4
  %blocks_.i = getelementptr inbounds i8, ptr %this, i64 16
  %wide.trip.count.i = zext nneg i32 %sub11 to i64
  br label %for.body.i

for.body.i:                                       ; preds = %for.body.i, %for.body.lr.ph.i
  %indvars.iv.i = phi i64 [ 0, %for.body.lr.ph.i ], [ %indvars.iv.next.i, %for.body.i ]
  %arrayidx.i = getelementptr inbounds i32, ptr %add.ptr13, i64 %indvars.iv.i
  %5 = load i32, ptr %arrayidx.i, align 4
  %6 = load i32, ptr %log_blocks_.i, align 4
  %sub.i = sub nsw i32 25, %6
  %shr.i = lshr i32 %5, %sub.i
  %and.i = and i32 %shr.i, 127
  %shr3.i = lshr i32 %shr.i, 7
  %7 = load ptr, ptr %blocks_.i, align 8
  %is_cpu_.i.i = getelementptr inbounds i8, ptr %7, i64 9
  %8 = load i8, ptr %is_cpu_.i.i, align 1
  %9 = and i8 %8, 1
  %tobool.not.i.i = icmp eq i8 %9, 0
  %data_.i.i = getelementptr inbounds i8, ptr %7, i64 16
  %10 = load ptr, ptr %data_.i.i, align 8
  %cond.i11.i = select i1 %tobool.not.i.i, ptr null, ptr %10
  %conv7.i = zext nneg i32 %shr3.i to i64
  %mul.i = mul nuw nsw i64 %add4.i, %conv7.i
  %add.ptr.i = getelementptr inbounds i8, ptr %cond.i11.i, i64 %mul.i
  %11 = load i64, ptr %add.ptr.i, align 8
  %and.i.i = and i64 %11, -9187201950435737472
  %conv.i.i = zext nneg i32 %and.i to i64
  %xor.i.i = lshr exact i64 %and.i.i, 7
  %shr.i.i = xor i64 %xor.i.i, 72340172838076673
  %mul.i.i = mul nuw i64 %shr.i.i, %conv.i.i
  %xor2.i.i = xor i64 %mul.i.i, %11
  %not.i.i = sub i64 -9187201950435737472, %xor2.i.i
  %and3.i.i = and i64 %not.i.i, -9187201950435737472
  %not4.i.i = and i64 %11, 128
  %and5.i.i = xor i64 %not4.i.i, 128
  %or.i.i = or i64 %and3.i.i, %and5.i.i
  %cmp.i12.i = icmp ne i64 %or.i.i, 0
  %cond.i13.i = zext i1 %cmp.i12.i to i8
  %or6.i.i = or i64 %or.i.i, %and.i.i
  %12 = tail call i64 @llvm.ctlz.i64(i64 %or6.i.i, i1 false), !range !23
  %cast.i.i.i = trunc i64 %12 to i8
  %shr7.i.i = lshr i8 %cast.i.i.i, 3
  %13 = trunc i64 %indvars.iv.i to i8
  %and14.i = and i8 %13, 7
  %shl.i = shl nuw i8 %cond.i13.i, %and14.i
  %div1510.i = lshr i64 %indvars.iv.i, 3
  %idxprom16.i = and i64 %div1510.i, 536870911
  %arrayidx17.i = getelementptr inbounds i8, ptr %add.ptr16, i64 %idxprom16.i
  %14 = load i8, ptr %arrayidx17.i, align 1
  %conv19.i = or i8 %shl.i, %14
  store i8 %conv19.i, ptr %arrayidx17.i, align 1
  %arrayidx22.i = getelementptr inbounds i8, ptr %add.ptr18, i64 %indvars.iv.i
  store i8 %shr7.i.i, ptr %arrayidx22.i, align 1
  %indvars.iv.next.i = add nuw nsw i64 %indvars.iv.i, 1
  %exitcond.not.i = icmp eq i64 %indvars.iv.next.i, %wide.trip.count.i
  br i1 %exitcond.not.i, label %_ZNK5arrow7compute10SwissTable16early_filter_impEiPKjPhS4_.exit, label %for.body.i, !llvm.loop !24

_ZNK5arrow7compute10SwissTable16early_filter_impEiPKjPhS4_.exit: ; preds = %for.body.i, %if.end10
  ret void
}